; Function Attrs: mustprogress uwtable
define noundef zeroext i1 @_ZNK6icu_757MeasureeqERKNS_7UObjectE(ptr noundef nonnull align 8 dereferenceable(128) %this, ptr noundef nonnull align 8 dereferenceable(8) %other) local_unnamed_addr #1 align 2 {
entry:
  %cmp = icmp eq ptr %this, %other
  br i1 %cmp, label %return, label %typeid.end

typeid.end:                                       ; preds = %entry
  %vtable = load ptr, ptr %this, align 8
  %0 = getelementptr inbounds i8, ptr %vtable, i64 -8
  %1 = load ptr, ptr %0, align 8
  %vtable2 = load ptr, ptr %other, align 8
  %2 = getelementptr inbounds i8, ptr %vtable2, i64 -8
  %3 = load ptr, ptr %2, align 8
  %__name.i.i = getelementptr inbounds i8, ptr %1, i64 8
  %4 = load ptr, ptr %__name.i.i, align 8
  %__name2.i.i = getelementptr inbounds i8, ptr %3, i64 8
  %5 = load ptr, ptr %__name2.i.i, align 8
  %cmp.i.i = icmp eq ptr %4, %5
  br i1 %cmp.i.i, label %if.end4, label %if.end.i.i

if.end.i.i:                                       ; preds = %typeid.end
  %6 = load i8, ptr %4, align 1
  %cmp4.not.i.i = icmp eq i8 %6, 42
  br i1 %cmp4.not.i.i, label %return, label %_ZNKSt9type_infoneERKS_.exit

_ZNKSt9type_infoneERKS_.exit:                     ; preds = %if.end.i.i
  %7 = load i8, ptr %5, align 1
  %cmp.i.i.i = icmp eq i8 %7, 42
  %cond.idx.i.i.i = zext i1 %cmp.i.i.i to i64
  %cond.i.i.i = getelementptr inbounds i8, ptr %5, i64 %cond.idx.i.i.i
  %call6.i.i = tail call i32 @strcmp(ptr noundef nonnull dereferenceable(1) %4, ptr noundef nonnull dereferenceable(1) %cond.i.i.i) #6
  %cmp7.i.i.not = icmp eq i32 %call6.i.i, 0
  br i1 %cmp7.i.i.not, label %if.end4, label %return

if.end4:                                          ; preds = %typeid.end, %_ZNKSt9type_infoneERKS_.exit
  %number = getelementptr inbounds i8, ptr %this, i64 8
  %number5 = getelementptr inbounds i8, ptr %other, i64 8
  %call6 = tail call noundef zeroext i1 @_ZNK6icu_7511FormattableeqERKS0_(ptr noundef nonnull align 8 dereferenceable(112) %number, ptr noundef nonnull align 8 dereferenceable(112) %number5)
  br i1 %call6, label %land.lhs.true, label %return

land.lhs.true:                                    ; preds = %if.end4
  %unit = getelementptr inbounds i8, ptr %this, i64 120
  %8 = load ptr, ptr %unit, align 8
  %cmp7 = icmp eq ptr %8, null
  %unit8 = getelementptr inbounds i8, ptr %other, i64 120
  %9 = load ptr, ptr %unit8, align 8
  %10 = icmp eq ptr %9, null
  %cmp11.not = xor i1 %cmp7, %10
  %brmerge = or i1 %cmp7, %10
  %not.cmp11.not = xor i1 %cmp11.not, true
  br i1 %brmerge, label %return, label %lor.rhs

lor.rhs:                                          ; preds = %land.lhs.true
  %vtable16 = load ptr, ptr %8, align 8
  %vfn = getelementptr inbounds i8, ptr %vtable16, i64 32
  %11 = load ptr, ptr %vfn, align 8
  %call17 = tail call noundef zeroext i1 %11(ptr noundef nonnull align 8 dereferenceable(19) %8, ptr noundef nonnull align 8 dereferenceable(8) %9)
  br label %return

return:                                           ; preds = %if.end.i.i, %if.end4, %lor.rhs, %land.lhs.true, %_ZNKSt9type_infoneERKS_.exit, %entry
  %retval.0 = phi i1 [ true, %entry ], [ false, %_ZNKSt9type_infoneERKS_.exit ], [ %not.cmp11.not, %land.lhs.true ], [ false, %if.end4 ], [ %call17, %lor.rhs ], [ false, %if.end.i.i ]
  ret i1 %retval.0
}